; Function Attrs: mustprogress uwtable
define void @_ZN7rocksdb21EncryptedWritableFile8TruncateEmRKNS_9IOOptionsEPNS_14IODebugContextE(ptr dead_on_unwind noalias writable sret(%"class.rocksdb::IOStatus") align 8 %0, ptr noundef nonnull readonly align 8 captures(none) dereferenceable(64) %1, i64 noundef %2, ptr noundef nonnull align 8 dereferenceable(84) %3, ptr noundef %4) unnamed_addr #3 align 2 {
  %6 = getelementptr inbounds nuw i8, ptr %1, i64 40
  %7 = load ptr, ptr %6, align 8, !tbaa !108
  %8 = getelementptr inbounds nuw i8, ptr %1, i64 56
  %9 = load i64, ptr %8, align 8, !tbaa !133
  %10 = add i64 %9, %2
  %11 = load ptr, ptr %7, align 8, !tbaa !13
  %12 = getelementptr inbounds nuw i8, ptr %11, i64 48
  %13 = load ptr, ptr %12, align 8
  tail call void %13(ptr dead_on_unwind writable sret(%"class.rocksdb::IOStatus") align 8 %0, ptr noundef nonnull align 8 dereferenceable(33) %7, i64 noundef %10, ptr noundef nonnull align 8 dereferenceable(84) %3, ptr noundef %4)
  ret void
}